
Stm32.elf:     file format elf32-littlearm

Sections:
Idx Name          Size      VMA       LMA       File off  Algn
  0 .isr_vector   00000130  08000000  08000000  00001000  2**0
                  CONTENTS, ALLOC, LOAD, READONLY, DATA
  1 .text         000009f8  08000130  08000130  00001130  2**2
                  CONTENTS, ALLOC, LOAD, READONLY, CODE
  2 .rodata       00000018  08000b28  08000b28  00001b28  2**2
                  CONTENTS, ALLOC, LOAD, READONLY, DATA
  3 .ARM.extab    00000000  08000b40  08000b40  00001b48  2**0
                  CONTENTS
  4 .ARM          00000000  08000b40  08000b40  00001b48  2**0
                  CONTENTS
  5 .preinit_array 00000000  08000b40  08000b48  00001b48  2**0
                  CONTENTS, ALLOC, LOAD, DATA
  6 .init_array   00000004  08000b40  08000b40  00001b40  2**2
                  CONTENTS, ALLOC, LOAD, READONLY, DATA
  7 .fini_array   00000004  08000b44  08000b44  00001b44  2**2
                  CONTENTS, ALLOC, LOAD, READONLY, DATA
  8 .data         00000000  20000000  20000000  00001b48  2**0
                  CONTENTS, ALLOC, LOAD, DATA
  9 .bss          0000006c  20000000  08000b48  00002000  2**2
                  ALLOC
 10 ._user_heap_stack 00000604  2000006c  08000b48  0000206c  2**0
                  ALLOC
 11 .ARM.attributes 00000029  00000000  00000000  00001b48  2**0
                  CONTENTS, READONLY
 12 .debug_info   0000161a  00000000  00000000  00001b71  2**0
                  CONTENTS, READONLY, DEBUGGING, OCTETS
 13 .debug_abbrev 0000068b  00000000  00000000  0000318b  2**0
                  CONTENTS, READONLY, DEBUGGING, OCTETS
 14 .debug_loc    00000a40  00000000  00000000  00003816  2**0
                  CONTENTS, READONLY, DEBUGGING, OCTETS
 15 .debug_aranges 000001c8  00000000  00000000  00004258  2**3
                  CONTENTS, READONLY, DEBUGGING, OCTETS
 16 .debug_ranges 00000170  00000000  00000000  00004420  2**3
                  CONTENTS, READONLY, DEBUGGING, OCTETS
 17 .debug_macro  00000b2c  00000000  00000000  00004590  2**0
                  CONTENTS, READONLY, DEBUGGING, OCTETS
 18 .debug_line   00002954  00000000  00000000  000050bc  2**0
                  CONTENTS, READONLY, DEBUGGING, OCTETS
 19 .debug_str    0000a667  00000000  00000000  00007a10  2**0
                  CONTENTS, READONLY, DEBUGGING, OCTETS
 20 .comment      00000043  00000000  00000000  00012077  2**0
                  CONTENTS, READONLY
 21 .debug_frame  0000057c  00000000  00000000  000120bc  2**2
                  CONTENTS, READONLY, DEBUGGING, OCTETS

Disassembly of section .text:

08000130 <__do_global_dtors_aux>:
 8000130:	b510      	push	{r4, lr}
 8000132:	4c05      	ldr	r4, [pc, #20]	@ (8000148 <__do_global_dtors_aux+0x18>)
 8000134:	7823      	ldrb	r3, [r4, #0]
 8000136:	b933      	cbnz	r3, 8000146 <__do_global_dtors_aux+0x16>
 8000138:	4b04      	ldr	r3, [pc, #16]	@ (800014c <__do_global_dtors_aux+0x1c>)
 800013a:	b113      	cbz	r3, 8000142 <__do_global_dtors_aux+0x12>
 800013c:	4804      	ldr	r0, [pc, #16]	@ (8000150 <__do_global_dtors_aux+0x20>)
 800013e:	f3af 8000 	nop.w
 8000142:	2301      	movs	r3, #1
 8000144:	7023      	strb	r3, [r4, #0]
 8000146:	bd10      	pop	{r4, pc}
 8000148:	20000000 	.word	0x20000000
 800014c:	00000000 	.word	0x00000000
 8000150:	08000b10 	.word	0x08000b10

08000154 <frame_dummy>:
 8000154:	b508      	push	{r3, lr}
 8000156:	4b03      	ldr	r3, [pc, #12]	@ (8000164 <frame_dummy+0x10>)
 8000158:	b11b      	cbz	r3, 8000162 <frame_dummy+0xe>
 800015a:	4903      	ldr	r1, [pc, #12]	@ (8000168 <frame_dummy+0x14>)
 800015c:	4803      	ldr	r0, [pc, #12]	@ (800016c <frame_dummy+0x18>)
 800015e:	f3af 8000 	nop.w
 8000162:	bd08      	pop	{r3, pc}
 8000164:	00000000 	.word	0x00000000
 8000168:	20000004 	.word	0x20000004
 800016c:	08000b10 	.word	0x08000b10

08000170 <Get_CRLH_Position>:
    for (i = 0; i < time; i++)
        for (j = 0; j < 255; j++)
            ;
}
uint8_t Get_CRLH_Position(uint16_t PinNumber)
    {
 8000170:	b480      	push	{r7}
 8000172:	b083      	sub	sp, #12
 8000174:	af00      	add	r7, sp, #0
 8000176:	4603      	mov	r3, r0
 8000178:	80fb      	strh	r3, [r7, #6]
    switch (PinNumber)
 800017a:	88fb      	ldrh	r3, [r7, #6]
 800017c:	f5b3 4f00 	cmp.w	r3, #32768	@ 0x8000
 8000180:	f000 80a5 	beq.w	80002ce <Get_CRLH_Position+0x15e>
 8000184:	f5b3 4f00 	cmp.w	r3, #32768	@ 0x8000
 8000188:	f300 80a3 	bgt.w	80002d2 <Get_CRLH_Position+0x162>
 800018c:	f5b3 4f80 	cmp.w	r3, #16384	@ 0x4000
 8000190:	f000 809b 	beq.w	80002ca <Get_CRLH_Position+0x15a>
 8000194:	f5b3 4f80 	cmp.w	r3, #16384	@ 0x4000
 8000198:	f300 809b 	bgt.w	80002d2 <Get_CRLH_Position+0x162>
 800019c:	f5b3 5f00 	cmp.w	r3, #8192	@ 0x2000
 80001a0:	f000 8091 	beq.w	80002c6 <Get_CRLH_Position+0x156>
 80001a4:	f5b3 5f00 	cmp.w	r3, #8192	@ 0x2000
 80001a8:	f300 8093 	bgt.w	80002d2 <Get_CRLH_Position+0x162>
 80001ac:	f5b3 5f80 	cmp.w	r3, #4096	@ 0x1000
 80001b0:	f000 8087 	beq.w	80002c2 <Get_CRLH_Position+0x152>
 80001b4:	f5b3 5f80 	cmp.w	r3, #4096	@ 0x1000
 80001b8:	f300 808b 	bgt.w	80002d2 <Get_CRLH_Position+0x162>
 80001bc:	f5b3 6f00 	cmp.w	r3, #2048	@ 0x800
 80001c0:	d07d      	beq.n	80002be <Get_CRLH_Position+0x14e>
 80001c2:	f5b3 6f00 	cmp.w	r3, #2048	@ 0x800
 80001c6:	f300 8084 	bgt.w	80002d2 <Get_CRLH_Position+0x162>
 80001ca:	f5b3 6f80 	cmp.w	r3, #1024	@ 0x400
 80001ce:	d074      	beq.n	80002ba <Get_CRLH_Position+0x14a>
 80001d0:	f5b3 6f80 	cmp.w	r3, #1024	@ 0x400
 80001d4:	dc7d      	bgt.n	80002d2 <Get_CRLH_Position+0x162>
 80001d6:	f5b3 7f00 	cmp.w	r3, #512	@ 0x200
 80001da:	d06c      	beq.n	80002b6 <Get_CRLH_Position+0x146>
 80001dc:	f5b3 7f00 	cmp.w	r3, #512	@ 0x200
 80001e0:	dc77      	bgt.n	80002d2 <Get_CRLH_Position+0x162>
 80001e2:	f5b3 7f80 	cmp.w	r3, #256	@ 0x100
 80001e6:	d064      	beq.n	80002b2 <Get_CRLH_Position+0x142>
 80001e8:	f5b3 7f80 	cmp.w	r3, #256	@ 0x100
 80001ec:	dc71      	bgt.n	80002d2 <Get_CRLH_Position+0x162>
 80001ee:	2b80      	cmp	r3, #128	@ 0x80
 80001f0:	d05d      	beq.n	80002ae <Get_CRLH_Position+0x13e>
 80001f2:	2b80      	cmp	r3, #128	@ 0x80
 80001f4:	dc6d      	bgt.n	80002d2 <Get_CRLH_Position+0x162>
 80001f6:	2b20      	cmp	r3, #32
 80001f8:	dc48      	bgt.n	800028c <Get_CRLH_Position+0x11c>
 80001fa:	2b00      	cmp	r3, #0
 80001fc:	dd69      	ble.n	80002d2 <Get_CRLH_Position+0x162>
 80001fe:	3b01      	subs	r3, #1
 8000200:	2b1f      	cmp	r3, #31
 8000202:	d866      	bhi.n	80002d2 <Get_CRLH_Position+0x162>
 8000204:	a201      	add	r2, pc, #4	@ (adr r2, 800020c <Get_CRLH_Position+0x9c>)
 8000206:	f852 f023 	ldr.w	pc, [r2, r3, lsl #2]
 800020a:	bf00      	nop
 800020c:	08000293 	.word	0x08000293
 8000210:	08000297 	.word	0x08000297
 8000214:	080002d3 	.word	0x080002d3
 8000218:	0800029b 	.word	0x0800029b
 800021c:	080002d3 	.word	0x080002d3
 8000220:	080002d3 	.word	0x080002d3
 8000224:	080002d3 	.word	0x080002d3
 8000228:	0800029f 	.word	0x0800029f
 800022c:	080002d3 	.word	0x080002d3
 8000230:	080002d3 	.word	0x080002d3
 8000234:	080002d3 	.word	0x080002d3
 8000238:	080002d3 	.word	0x080002d3
 800023c:	080002d3 	.word	0x080002d3
 8000240:	080002d3 	.word	0x080002d3
 8000244:	080002d3 	.word	0x080002d3
 8000248:	080002a3 	.word	0x080002a3
 800024c:	080002d3 	.word	0x080002d3
 8000250:	080002d3 	.word	0x080002d3
 8000254:	080002d3 	.word	0x080002d3
 8000258:	080002d3 	.word	0x080002d3
 800025c:	080002d3 	.word	0x080002d3
 8000260:	080002d3 	.word	0x080002d3
 8000264:	080002d3 	.word	0x080002d3
 8000268:	080002d3 	.word	0x080002d3
 800026c:	080002d3 	.word	0x080002d3
 8000270:	080002d3 	.word	0x080002d3
 8000274:	080002d3 	.word	0x080002d3
 8000278:	080002d3 	.word	0x080002d3
 800027c:	080002d3 	.word	0x080002d3
 8000280:	080002d3 	.word	0x080002d3
 8000284:	080002d3 	.word	0x080002d3
 8000288:	080002a7 	.word	0x080002a7
 800028c:	2b40      	cmp	r3, #64	@ 0x40
 800028e:	d00c      	beq.n	80002aa <Get_CRLH_Position+0x13a>
 8000290:	e01f      	b.n	80002d2 <Get_CRLH_Position+0x162>
	{
    case GPIO_PIN_0:
	return 0;
 8000292:	2300      	movs	r3, #0
 8000294:	e01e      	b.n	80002d4 <Get_CRLH_Position+0x164>
	break;
    case GPIO_PIN_1:
	return 4;
 8000296:	2304      	movs	r3, #4
 8000298:	e01c      	b.n	80002d4 <Get_CRLH_Position+0x164>
	break;

    case GPIO_PIN_2:
	return 8;
 800029a:	2308      	movs	r3, #8
 800029c:	e01a      	b.n	80002d4 <Get_CRLH_Position+0x164>
	break;

    case GPIO_PIN_3:
	return 12;
 800029e:	230c      	movs	r3, #12
 80002a0:	e018      	b.n	80002d4 <Get_CRLH_Position+0x164>
	break;

    case GPIO_PIN_4:
	return 16;
 80002a2:	2310      	movs	r3, #16
 80002a4:	e016      	b.n	80002d4 <Get_CRLH_Position+0x164>
	break;

    case GPIO_PIN_5:
	return 20;
 80002a6:	2314      	movs	r3, #20
 80002a8:	e014      	b.n	80002d4 <Get_CRLH_Position+0x164>
	break;

    case GPIO_PIN_6:
	return 24;
 80002aa:	2318      	movs	r3, #24
 80002ac:	e012      	b.n	80002d4 <Get_CRLH_Position+0x164>
	break;

    case GPIO_PIN_7:
	return 28;
 80002ae:	231c      	movs	r3, #28
 80002b0:	e010      	b.n	80002d4 <Get_CRLH_Position+0x164>
	break;

    case GPIO_PIN_8:
	return 0;
 80002b2:	2300      	movs	r3, #0
 80002b4:	e00e      	b.n	80002d4 <Get_CRLH_Position+0x164>
	break;
    case GPIO_PIN_9:
	return 4;
 80002b6:	2304      	movs	r3, #4
 80002b8:	e00c      	b.n	80002d4 <Get_CRLH_Position+0x164>
	break;

    case GPIO_PIN_10:
	return 8;
 80002ba:	2308      	movs	r3, #8
 80002bc:	e00a      	b.n	80002d4 <Get_CRLH_Position+0x164>
	break;

    case GPIO_PIN_11:
	return 12;
 80002be:	230c      	movs	r3, #12
 80002c0:	e008      	b.n	80002d4 <Get_CRLH_Position+0x164>
	break;

    case GPIO_PIN_12:
	return 16;
 80002c2:	2310      	movs	r3, #16
 80002c4:	e006      	b.n	80002d4 <Get_CRLH_Position+0x164>
	break;

    case GPIO_PIN_13:
	return 20;
 80002c6:	2314      	movs	r3, #20
 80002c8:	e004      	b.n	80002d4 <Get_CRLH_Position+0x164>
	break;

    case GPIO_PIN_14:
	return 24;
 80002ca:	2318      	movs	r3, #24
 80002cc:	e002      	b.n	80002d4 <Get_CRLH_Position+0x164>
	break;

    case GPIO_PIN_15:
	return 28;
 80002ce:	231c      	movs	r3, #28
 80002d0:	e000      	b.n	80002d4 <Get_CRLH_Position+0x164>
	break;

	}
    return 0;
 80002d2:	2300      	movs	r3, #0

    }
 80002d4:	4618      	mov	r0, r3
 80002d6:	370c      	adds	r7, #12
 80002d8:	46bd      	mov	sp, r7
 80002da:	bc80      	pop	{r7}
 80002dc:	4770      	bx	lr
 80002de:	bf00      	nop

080002e0 <MCAL_GPIO_Init>:
 * @retval 		-none
 * Note			-Stm32F103C6 MCU has GPIO A,B,C,D,E Modules
 * 			 But LQFP48 Package has only GPIO A,B,PART of C/D exported as external PINS from the MCU
 */
void MCAL_GPIO_Init(GPIO_TypeDef *GPIOx, GPIO_PinConfig_t *PinConfig)
    {
 80002e0:	b590      	push	{r4, r7, lr}
 80002e2:	b085      	sub	sp, #20
 80002e4:	af00      	add	r7, sp, #0
 80002e6:	6078      	str	r0, [r7, #4]
 80002e8:	6039      	str	r1, [r7, #0]
    volatile uint32_t *configregister = NULL;
 80002ea:	2300      	movs	r3, #0
 80002ec:	60fb      	str	r3, [r7, #12]
    uint8_t PIN_Config = 0;
 80002ee:	2300      	movs	r3, #0
 80002f0:	72fb      	strb	r3, [r7, #11]

    configregister =
	    (PinConfig->GPIO_PinNumber < GPIO_PIN_8) ?
 80002f2:	683b      	ldr	r3, [r7, #0]
 80002f4:	881b      	ldrh	r3, [r3, #0]
		    &GPIOx->CRL : &GPIOx->CRH;
 80002f6:	2bff      	cmp	r3, #255	@ 0xff
 80002f8:	d801      	bhi.n	80002fe <MCAL_GPIO_Init+0x1e>
 80002fa:	687b      	ldr	r3, [r7, #4]
 80002fc:	e001      	b.n	8000302 <MCAL_GPIO_Init+0x22>
 80002fe:	687b      	ldr	r3, [r7, #4]
 8000300:	3304      	adds	r3, #4
    configregister =
 8000302:	60fb      	str	r3, [r7, #12]

    //CNF0[1:0] MODE0[1:0=]   Clear the four Bits
    (*configregister) &= ~(0xf << Get_CRLH_Position(PinConfig->GPIO_PinNumber));
 8000304:	683b      	ldr	r3, [r7, #0]
 8000306:	881b      	ldrh	r3, [r3, #0]
 8000308:	4618      	mov	r0, r3
 800030a:	f7ff ff31 	bl	8000170 <Get_CRLH_Position>
 800030e:	4603      	mov	r3, r0
 8000310:	461a      	mov	r2, r3
 8000312:	230f      	movs	r3, #15
 8000314:	4093      	lsls	r3, r2
 8000316:	43da      	mvns	r2, r3
 8000318:	68fb      	ldr	r3, [r7, #12]
 800031a:	681b      	ldr	r3, [r3, #0]
 800031c:	401a      	ands	r2, r3
 800031e:	68fb      	ldr	r3, [r7, #12]
 8000320:	601a      	str	r2, [r3, #0]

    //if Pin is output
    if ((PinConfig->GPIO_MODE == GPIO_MODE_OUTPUT_PP)
 8000322:	683b      	ldr	r3, [r7, #0]
 8000324:	789b      	ldrb	r3, [r3, #2]
 8000326:	2b04      	cmp	r3, #4
 8000328:	d00b      	beq.n	8000342 <MCAL_GPIO_Init+0x62>
	    || (PinConfig->GPIO_MODE == GPIO_MODE_OUTPUT_OD)
 800032a:	683b      	ldr	r3, [r7, #0]
 800032c:	789b      	ldrb	r3, [r3, #2]
 800032e:	2b05      	cmp	r3, #5
 8000330:	d007      	beq.n	8000342 <MCAL_GPIO_Init+0x62>
	    || (PinConfig->GPIO_MODE == GPIO_MODE_OUTPUT_AF_OD)
 8000332:	683b      	ldr	r3, [r7, #0]
 8000334:	789b      	ldrb	r3, [r3, #2]
 8000336:	2b07      	cmp	r3, #7
 8000338:	d003      	beq.n	8000342 <MCAL_GPIO_Init+0x62>
	    || (PinConfig->GPIO_MODE == GPIO_MODE_OUTPUT_AF_PP))
 800033a:	683b      	ldr	r3, [r7, #0]
 800033c:	789b      	ldrb	r3, [r3, #2]
 800033e:	2b06      	cmp	r3, #6
 8000340:	d11c      	bne.n	800037c <MCAL_GPIO_Init+0x9c>
	{
	PIN_Config = ((((PinConfig->GPIO_MODE - 4) << 2)
 8000342:	683b      	ldr	r3, [r7, #0]
 8000344:	789b      	ldrb	r3, [r3, #2]
 8000346:	3b04      	subs	r3, #4
 8000348:	009b      	lsls	r3, r3, #2
		| PinConfig->GPIO_Output_Speed) & 0x0F);
 800034a:	b25a      	sxtb	r2, r3
 800034c:	683b      	ldr	r3, [r7, #0]
 800034e:	78db      	ldrb	r3, [r3, #3]
 8000350:	b25b      	sxtb	r3, r3
 8000352:	4313      	orrs	r3, r2
 8000354:	b25b      	sxtb	r3, r3
 8000356:	b2db      	uxtb	r3, r3
	PIN_Config = ((((PinConfig->GPIO_MODE - 4) << 2)
 8000358:	f003 030f 	and.w	r3, r3, #15
 800035c:	72fb      	strb	r3, [r7, #11]
	(*configregister) |= ((PIN_Config)
		<< (Get_CRLH_Position(PinConfig->GPIO_PinNumber)));
 800035e:	7afc      	ldrb	r4, [r7, #11]
 8000360:	683b      	ldr	r3, [r7, #0]
 8000362:	881b      	ldrh	r3, [r3, #0]
 8000364:	4618      	mov	r0, r3
 8000366:	f7ff ff03 	bl	8000170 <Get_CRLH_Position>
 800036a:	4603      	mov	r3, r0
 800036c:	fa04 f203 	lsl.w	r2, r4, r3
	(*configregister) |= ((PIN_Config)
 8000370:	68fb      	ldr	r3, [r7, #12]
 8000372:	681b      	ldr	r3, [r3, #0]
 8000374:	431a      	orrs	r2, r3
 8000376:	68fb      	ldr	r3, [r7, #12]
 8000378:	601a      	str	r2, [r3, #0]
		<< (Get_CRLH_Position(PinConfig->GPIO_PinNumber)));
 800037a:	e057      	b.n	800042c <MCAL_GPIO_Init+0x14c>
	}
    //if pin is input
    else //MODE =  00: Input mode (reset state)
	{
	if ((PinConfig->GPIO_MODE == GPIO_MODE_ANALOG)
 800037c:	683b      	ldr	r3, [r7, #0]
 800037e:	789b      	ldrb	r3, [r3, #2]
 8000380:	2b00      	cmp	r3, #0
 8000382:	d003      	beq.n	800038c <MCAL_GPIO_Init+0xac>
		|| (PinConfig->GPIO_MODE == GPIO_MODE_INPUT_FLO))
 8000384:	683b      	ldr	r3, [r7, #0]
 8000386:	789b      	ldrb	r3, [r3, #2]
 8000388:	2b01      	cmp	r3, #1
 800038a:	d115      	bne.n	80003b8 <MCAL_GPIO_Init+0xd8>
	    {
	    PIN_Config = (((PinConfig->GPIO_MODE << 2) | 0x0) & 0x0F);
 800038c:	683b      	ldr	r3, [r7, #0]
 800038e:	789b      	ldrb	r3, [r3, #2]
 8000390:	009b      	lsls	r3, r3, #2
 8000392:	b2db      	uxtb	r3, r3
 8000394:	f003 030f 	and.w	r3, r3, #15
 8000398:	72fb      	strb	r3, [r7, #11]
	    (*configregister) |= ((PIN_Config)
		    << (Get_CRLH_Position(PinConfig->GPIO_PinNumber)));
 800039a:	7afc      	ldrb	r4, [r7, #11]
 800039c:	683b      	ldr	r3, [r7, #0]
 800039e:	881b      	ldrh	r3, [r3, #0]
 80003a0:	4618      	mov	r0, r3
 80003a2:	f7ff fee5 	bl	8000170 <Get_CRLH_Position>
 80003a6:	4603      	mov	r3, r0
 80003a8:	fa04 f203 	lsl.w	r2, r4, r3
	    (*configregister) |= ((PIN_Config)
 80003ac:	68fb      	ldr	r3, [r7, #12]
 80003ae:	681b      	ldr	r3, [r3, #0]
 80003b0:	431a      	orrs	r2, r3
 80003b2:	68fb      	ldr	r3, [r7, #12]
 80003b4:	601a      	str	r2, [r3, #0]
		    << (Get_CRLH_Position(PinConfig->GPIO_PinNumber)));
 80003b6:	e039      	b.n	800042c <MCAL_GPIO_Init+0x14c>
	    }
	else if (PinConfig->GPIO_MODE == GPIO_MODE_AF_INPUT)
 80003b8:	683b      	ldr	r3, [r7, #0]
 80003ba:	789b      	ldrb	r3, [r3, #2]
 80003bc:	2b08      	cmp	r3, #8
 80003be:	d110      	bne.n	80003e2 <MCAL_GPIO_Init+0x102>
	    {
	    PIN_Config = ((( GPIO_MODE_INPUT_FLO << 2) | 0x0) & 0x0F);
 80003c0:	2304      	movs	r3, #4
 80003c2:	72fb      	strb	r3, [r7, #11]
	    (*configregister) |= ((PIN_Config)
		    << (Get_CRLH_Position(PinConfig->GPIO_PinNumber)));
 80003c4:	7afc      	ldrb	r4, [r7, #11]
 80003c6:	683b      	ldr	r3, [r7, #0]
 80003c8:	881b      	ldrh	r3, [r3, #0]
 80003ca:	4618      	mov	r0, r3
 80003cc:	f7ff fed0 	bl	8000170 <Get_CRLH_Position>
 80003d0:	4603      	mov	r3, r0
 80003d2:	fa04 f203 	lsl.w	r2, r4, r3
	    (*configregister) |= ((PIN_Config)
 80003d6:	68fb      	ldr	r3, [r7, #12]
 80003d8:	681b      	ldr	r3, [r3, #0]
 80003da:	431a      	orrs	r2, r3
 80003dc:	68fb      	ldr	r3, [r7, #12]
 80003de:	601a      	str	r2, [r3, #0]
		}

	    }
	}

    }
 80003e0:	e024      	b.n	800042c <MCAL_GPIO_Init+0x14c>
	    PIN_Config = ((( GPIO_MODE_INPUT_PU << 2) | 0x0) & 0x0F);
 80003e2:	2308      	movs	r3, #8
 80003e4:	72fb      	strb	r3, [r7, #11]
		    << (Get_CRLH_Position(PinConfig->GPIO_PinNumber)));
 80003e6:	7afc      	ldrb	r4, [r7, #11]
 80003e8:	683b      	ldr	r3, [r7, #0]
 80003ea:	881b      	ldrh	r3, [r3, #0]
 80003ec:	4618      	mov	r0, r3
 80003ee:	f7ff febf 	bl	8000170 <Get_CRLH_Position>
 80003f2:	4603      	mov	r3, r0
 80003f4:	fa04 f203 	lsl.w	r2, r4, r3
	    (*configregister) |= ((PIN_Config)
 80003f8:	68fb      	ldr	r3, [r7, #12]
 80003fa:	681b      	ldr	r3, [r3, #0]
 80003fc:	431a      	orrs	r2, r3
 80003fe:	68fb      	ldr	r3, [r7, #12]
 8000400:	601a      	str	r2, [r3, #0]
	    if (PinConfig->GPIO_MODE == GPIO_MODE_INPUT_PU)
 8000402:	683b      	ldr	r3, [r7, #0]
 8000404:	789b      	ldrb	r3, [r3, #2]
 8000406:	2b02      	cmp	r3, #2
 8000408:	d107      	bne.n	800041a <MCAL_GPIO_Init+0x13a>
		GPIOx->ODR |= PinConfig->GPIO_PinNumber;
 800040a:	687b      	ldr	r3, [r7, #4]
 800040c:	68db      	ldr	r3, [r3, #12]
 800040e:	683a      	ldr	r2, [r7, #0]
 8000410:	8812      	ldrh	r2, [r2, #0]
 8000412:	431a      	orrs	r2, r3
 8000414:	687b      	ldr	r3, [r7, #4]
 8000416:	60da      	str	r2, [r3, #12]
    }
 8000418:	e008      	b.n	800042c <MCAL_GPIO_Init+0x14c>
		GPIOx->ODR &= ~(PinConfig->GPIO_PinNumber);
 800041a:	687b      	ldr	r3, [r7, #4]
 800041c:	68db      	ldr	r3, [r3, #12]
 800041e:	683a      	ldr	r2, [r7, #0]
 8000420:	8812      	ldrh	r2, [r2, #0]
 8000422:	43d2      	mvns	r2, r2
 8000424:	401a      	ands	r2, r3
 8000426:	687b      	ldr	r3, [r7, #4]
 8000428:	60da      	str	r2, [r3, #12]
    }
 800042a:	e7ff      	b.n	800042c <MCAL_GPIO_Init+0x14c>
 800042c:	bf00      	nop
 800042e:	3714      	adds	r7, #20
 8000430:	46bd      	mov	sp, r7
 8000432:	bd90      	pop	{r4, r7, pc}

08000434 <MCAL_RCC_Get_SYS_CLK_Freq>:
//01: HSE selected as system clock
//10: PLL selected as system clock
//11: Not allowed

uint32_t MCAL_RCC_Get_SYS_CLK_Freq(void)
    {
 8000434:	b480      	push	{r7}
 8000436:	af00      	add	r7, sp, #0
    switch (RCC->CFGR >> 2)
 8000438:	4b0b      	ldr	r3, [pc, #44]	@ (8000468 <MCAL_RCC_Get_SYS_CLK_Freq+0x34>)
 800043a:	685b      	ldr	r3, [r3, #4]
 800043c:	089b      	lsrs	r3, r3, #2
 800043e:	2b02      	cmp	r3, #2
 8000440:	d00a      	beq.n	8000458 <MCAL_RCC_Get_SYS_CLK_Freq+0x24>
 8000442:	2b02      	cmp	r3, #2
 8000444:	d80a      	bhi.n	800045c <MCAL_RCC_Get_SYS_CLK_Freq+0x28>
 8000446:	2b00      	cmp	r3, #0
 8000448:	d002      	beq.n	8000450 <MCAL_RCC_Get_SYS_CLK_Freq+0x1c>
 800044a:	2b01      	cmp	r3, #1
 800044c:	d002      	beq.n	8000454 <MCAL_RCC_Get_SYS_CLK_Freq+0x20>
 800044e:	e005      	b.n	800045c <MCAL_RCC_Get_SYS_CLK_Freq+0x28>
	{
    case 0:
	return HSI_RC_Clk;
 8000450:	4b06      	ldr	r3, [pc, #24]	@ (800046c <MCAL_RCC_Get_SYS_CLK_Freq+0x38>)
 8000452:	e005      	b.n	8000460 <MCAL_RCC_Get_SYS_CLK_Freq+0x2c>
	break;

    case 1:
	return HSE_Clock;
 8000454:	4b05      	ldr	r3, [pc, #20]	@ (800046c <MCAL_RCC_Get_SYS_CLK_Freq+0x38>)
 8000456:	e003      	b.n	8000460 <MCAL_RCC_Get_SYS_CLK_Freq+0x2c>
	break;

    case 2:
	return 16000000UL;
 8000458:	4b04      	ldr	r3, [pc, #16]	@ (800046c <MCAL_RCC_Get_SYS_CLK_Freq+0x38>)
 800045a:	e001      	b.n	8000460 <MCAL_RCC_Get_SYS_CLK_Freq+0x2c>
	break;

	}
return -1;
 800045c:	f04f 33ff 	mov.w	r3, #4294967295
    }
 8000460:	4618      	mov	r0, r3
 8000462:	46bd      	mov	sp, r7
 8000464:	bc80      	pop	{r7}
 8000466:	4770      	bx	lr
 8000468:	40021000 	.word	0x40021000
 800046c:	00f42400 	.word	0x00f42400

08000470 <MCAL_RCC_Get_HCLK_Freq>:
//1100: SYSCLK divided by 64     12
//1101: SYSCLK divided by 128    13
//1110: SYSCLK divided by 256    14
//1111: SYSCLK divided by 512    15
uint32_t MCAL_RCC_Get_HCLK_Freq(void)
    {
 8000470:	b580      	push	{r7, lr}
 8000472:	af00      	add	r7, sp, #0
    return (MCAL_RCC_Get_SYS_CLK_Freq() >> ((HCLK[RCC->CFGR >> 4]) & 0B1111));
 8000474:	f7ff ffde 	bl	8000434 <MCAL_RCC_Get_SYS_CLK_Freq>
 8000478:	4602      	mov	r2, r0
 800047a:	4b05      	ldr	r3, [pc, #20]	@ (8000490 <MCAL_RCC_Get_HCLK_Freq+0x20>)
 800047c:	685b      	ldr	r3, [r3, #4]
 800047e:	091b      	lsrs	r3, r3, #4
 8000480:	4904      	ldr	r1, [pc, #16]	@ (8000494 <MCAL_RCC_Get_HCLK_Freq+0x24>)
 8000482:	5ccb      	ldrb	r3, [r1, r3]
 8000484:	f003 030f 	and.w	r3, r3, #15
 8000488:	fa22 f303 	lsr.w	r3, r2, r3
    }
 800048c:	4618      	mov	r0, r3
 800048e:	bd80      	pop	{r7, pc}
 8000490:	40021000 	.word	0x40021000
 8000494:	08000b30 	.word	0x08000b30

08000498 <MCAL_RCC_Get_PCLK1_Freq>:
//110: HCLK divided by 8
//111: HCLK divided by 16
//Caution: Software must configure these bits ensure that the frequency in this domain does not
//exceed 36 MHz.
uint32_t MCAL_RCC_Get_PCLK1_Freq(void)
    {
 8000498:	b580      	push	{r7, lr}
 800049a:	af00      	add	r7, sp, #0
    return (MCAL_RCC_Get_HCLK_Freq()
 800049c:	f7ff ffe8 	bl	8000470 <MCAL_RCC_Get_HCLK_Freq>
 80004a0:	4602      	mov	r2, r0
	    >> (APBP_resc_Table[RCC->CFGR >> 8] & 0B111));
 80004a2:	4b05      	ldr	r3, [pc, #20]	@ (80004b8 <MCAL_RCC_Get_PCLK1_Freq+0x20>)
 80004a4:	685b      	ldr	r3, [r3, #4]
 80004a6:	0a1b      	lsrs	r3, r3, #8
 80004a8:	4904      	ldr	r1, [pc, #16]	@ (80004bc <MCAL_RCC_Get_PCLK1_Freq+0x24>)
 80004aa:	5ccb      	ldrb	r3, [r1, r3]
 80004ac:	f003 0307 	and.w	r3, r3, #7
 80004b0:	fa22 f303 	lsr.w	r3, r2, r3

    }
 80004b4:	4618      	mov	r0, r3
 80004b6:	bd80      	pop	{r7, pc}
 80004b8:	40021000 	.word	0x40021000
 80004bc:	08000b28 	.word	0x08000b28

080004c0 <MCAL_RCC_Get_PCLK2_Freq>:
//101: HCLK divided by 4
//110: HCLK divided by 8
//111: HCLK divided by 16

uint32_t MCAL_RCC_Get_PCLK2_Freq(void)
    {
 80004c0:	b580      	push	{r7, lr}
 80004c2:	af00      	add	r7, sp, #0
    return (MCAL_RCC_Get_HCLK_Freq()
 80004c4:	f7ff ffd4 	bl	8000470 <MCAL_RCC_Get_HCLK_Freq>
 80004c8:	4602      	mov	r2, r0
	    >> (APBP_resc_Table[RCC->CFGR >> 11] & 0B111));
 80004ca:	4b05      	ldr	r3, [pc, #20]	@ (80004e0 <MCAL_RCC_Get_PCLK2_Freq+0x20>)
 80004cc:	685b      	ldr	r3, [r3, #4]
 80004ce:	0adb      	lsrs	r3, r3, #11
 80004d0:	4904      	ldr	r1, [pc, #16]	@ (80004e4 <MCAL_RCC_Get_PCLK2_Freq+0x24>)
 80004d2:	5ccb      	ldrb	r3, [r1, r3]
 80004d4:	f003 0307 	and.w	r3, r3, #7
 80004d8:	fa22 f303 	lsr.w	r3, r2, r3
    }
 80004dc:	4618      	mov	r0, r3
 80004de:	bd80      	pop	{r7, pc}
 80004e0:	40021000 	.word	0x40021000
 80004e4:	08000b28 	.word	0x08000b28

080004e8 <EXTI0_IRQHandler>:
        Disable_NVIC(EXTI_Cfg->EXI_Pin.EXTI_InputLine_Number);
    }
}

void EXTI0_IRQHandler(void)
{
 80004e8:	b580      	push	{r7, lr}
 80004ea:	af00      	add	r7, sp, #0
    EXTI->PR |= (1 << 0);
 80004ec:	4b05      	ldr	r3, [pc, #20]	@ (8000504 <EXTI0_IRQHandler+0x1c>)
 80004ee:	695b      	ldr	r3, [r3, #20]
 80004f0:	4a04      	ldr	r2, [pc, #16]	@ (8000504 <EXTI0_IRQHandler+0x1c>)
 80004f2:	f043 0301 	orr.w	r3, r3, #1
 80004f6:	6153      	str	r3, [r2, #20]
    G_IRQ_Callback[0]();
 80004f8:	4b03      	ldr	r3, [pc, #12]	@ (8000508 <EXTI0_IRQHandler+0x20>)
 80004fa:	681b      	ldr	r3, [r3, #0]
 80004fc:	4798      	blx	r3
}
 80004fe:	bf00      	nop
 8000500:	bd80      	pop	{r7, pc}
 8000502:	bf00      	nop
 8000504:	40010400 	.word	0x40010400
 8000508:	2000001c 	.word	0x2000001c

0800050c <EXTI1_IRQHandler>:

void EXTI1_IRQHandler(void)
{
 800050c:	b580      	push	{r7, lr}
 800050e:	af00      	add	r7, sp, #0
    EXTI->PR |= (1 << 1);
 8000510:	4b05      	ldr	r3, [pc, #20]	@ (8000528 <EXTI1_IRQHandler+0x1c>)
 8000512:	695b      	ldr	r3, [r3, #20]
 8000514:	4a04      	ldr	r2, [pc, #16]	@ (8000528 <EXTI1_IRQHandler+0x1c>)
 8000516:	f043 0302 	orr.w	r3, r3, #2
 800051a:	6153      	str	r3, [r2, #20]
    G_IRQ_Callback[1]();
 800051c:	4b03      	ldr	r3, [pc, #12]	@ (800052c <EXTI1_IRQHandler+0x20>)
 800051e:	685b      	ldr	r3, [r3, #4]
 8000520:	4798      	blx	r3
}
 8000522:	bf00      	nop
 8000524:	bd80      	pop	{r7, pc}
 8000526:	bf00      	nop
 8000528:	40010400 	.word	0x40010400
 800052c:	2000001c 	.word	0x2000001c

08000530 <EXTI2_IRQHandler>:

void EXTI2_IRQHandler(void)
{
 8000530:	b580      	push	{r7, lr}
 8000532:	af00      	add	r7, sp, #0
    EXTI->PR |= (1 << 2);
 8000534:	4b05      	ldr	r3, [pc, #20]	@ (800054c <EXTI2_IRQHandler+0x1c>)
 8000536:	695b      	ldr	r3, [r3, #20]
 8000538:	4a04      	ldr	r2, [pc, #16]	@ (800054c <EXTI2_IRQHandler+0x1c>)
 800053a:	f043 0304 	orr.w	r3, r3, #4
 800053e:	6153      	str	r3, [r2, #20]
    G_IRQ_Callback[2]();
 8000540:	4b03      	ldr	r3, [pc, #12]	@ (8000550 <EXTI2_IRQHandler+0x20>)
 8000542:	689b      	ldr	r3, [r3, #8]
 8000544:	4798      	blx	r3
}
 8000546:	bf00      	nop
 8000548:	bd80      	pop	{r7, pc}
 800054a:	bf00      	nop
 800054c:	40010400 	.word	0x40010400
 8000550:	2000001c 	.word	0x2000001c

08000554 <EXTI3_IRQHandler>:

void EXTI3_IRQHandler(void)
{
 8000554:	b580      	push	{r7, lr}
 8000556:	af00      	add	r7, sp, #0
    EXTI->PR |= (1 << 3);
 8000558:	4b05      	ldr	r3, [pc, #20]	@ (8000570 <EXTI3_IRQHandler+0x1c>)
 800055a:	695b      	ldr	r3, [r3, #20]
 800055c:	4a04      	ldr	r2, [pc, #16]	@ (8000570 <EXTI3_IRQHandler+0x1c>)
 800055e:	f043 0308 	orr.w	r3, r3, #8
 8000562:	6153      	str	r3, [r2, #20]
    G_IRQ_Callback[3]();
 8000564:	4b03      	ldr	r3, [pc, #12]	@ (8000574 <EXTI3_IRQHandler+0x20>)
 8000566:	68db      	ldr	r3, [r3, #12]
 8000568:	4798      	blx	r3
}
 800056a:	bf00      	nop
 800056c:	bd80      	pop	{r7, pc}
 800056e:	bf00      	nop
 8000570:	40010400 	.word	0x40010400
 8000574:	2000001c 	.word	0x2000001c

08000578 <EXTI4_IRQHandler>:

void EXTI4_IRQHandler(void)
{
 8000578:	b580      	push	{r7, lr}
 800057a:	af00      	add	r7, sp, #0
    EXTI->PR |= (1 << 4);
 800057c:	4b05      	ldr	r3, [pc, #20]	@ (8000594 <EXTI4_IRQHandler+0x1c>)
 800057e:	695b      	ldr	r3, [r3, #20]
 8000580:	4a04      	ldr	r2, [pc, #16]	@ (8000594 <EXTI4_IRQHandler+0x1c>)
 8000582:	f043 0310 	orr.w	r3, r3, #16
 8000586:	6153      	str	r3, [r2, #20]
    G_IRQ_Callback[4]();
 8000588:	4b03      	ldr	r3, [pc, #12]	@ (8000598 <EXTI4_IRQHandler+0x20>)
 800058a:	691b      	ldr	r3, [r3, #16]
 800058c:	4798      	blx	r3
}
 800058e:	bf00      	nop
 8000590:	bd80      	pop	{r7, pc}
 8000592:	bf00      	nop
 8000594:	40010400 	.word	0x40010400
 8000598:	2000001c 	.word	0x2000001c

0800059c <EXTI9_5_IRQHandler>:

void EXTI9_5_IRQHandler(void)
{
 800059c:	b580      	push	{r7, lr}
 800059e:	af00      	add	r7, sp, #0
    if (EXTI->PR & (1 << 5))
 80005a0:	4b26      	ldr	r3, [pc, #152]	@ (800063c <EXTI9_5_IRQHandler+0xa0>)
 80005a2:	695b      	ldr	r3, [r3, #20]
 80005a4:	f003 0320 	and.w	r3, r3, #32
 80005a8:	2b00      	cmp	r3, #0
 80005aa:	d008      	beq.n	80005be <EXTI9_5_IRQHandler+0x22>
    {
        EXTI->PR |= (1 << 5);
 80005ac:	4b23      	ldr	r3, [pc, #140]	@ (800063c <EXTI9_5_IRQHandler+0xa0>)
 80005ae:	695b      	ldr	r3, [r3, #20]
 80005b0:	4a22      	ldr	r2, [pc, #136]	@ (800063c <EXTI9_5_IRQHandler+0xa0>)
 80005b2:	f043 0320 	orr.w	r3, r3, #32
 80005b6:	6153      	str	r3, [r2, #20]
        G_IRQ_Callback[5]();
 80005b8:	4b21      	ldr	r3, [pc, #132]	@ (8000640 <EXTI9_5_IRQHandler+0xa4>)
 80005ba:	695b      	ldr	r3, [r3, #20]
 80005bc:	4798      	blx	r3
    }
    if (EXTI->PR & (1 << 6))
 80005be:	4b1f      	ldr	r3, [pc, #124]	@ (800063c <EXTI9_5_IRQHandler+0xa0>)
 80005c0:	695b      	ldr	r3, [r3, #20]
 80005c2:	f003 0340 	and.w	r3, r3, #64	@ 0x40
 80005c6:	2b00      	cmp	r3, #0
 80005c8:	d008      	beq.n	80005dc <EXTI9_5_IRQHandler+0x40>
    {
        EXTI->PR |= (1 << 6);
 80005ca:	4b1c      	ldr	r3, [pc, #112]	@ (800063c <EXTI9_5_IRQHandler+0xa0>)
 80005cc:	695b      	ldr	r3, [r3, #20]
 80005ce:	4a1b      	ldr	r2, [pc, #108]	@ (800063c <EXTI9_5_IRQHandler+0xa0>)
 80005d0:	f043 0340 	orr.w	r3, r3, #64	@ 0x40
 80005d4:	6153      	str	r3, [r2, #20]
        G_IRQ_Callback[6]();
 80005d6:	4b1a      	ldr	r3, [pc, #104]	@ (8000640 <EXTI9_5_IRQHandler+0xa4>)
 80005d8:	699b      	ldr	r3, [r3, #24]
 80005da:	4798      	blx	r3
    }
    if (EXTI->PR & (1 << 7))
 80005dc:	4b17      	ldr	r3, [pc, #92]	@ (800063c <EXTI9_5_IRQHandler+0xa0>)
 80005de:	695b      	ldr	r3, [r3, #20]
 80005e0:	f003 0380 	and.w	r3, r3, #128	@ 0x80
 80005e4:	2b00      	cmp	r3, #0
 80005e6:	d008      	beq.n	80005fa <EXTI9_5_IRQHandler+0x5e>
    {
        EXTI->PR |= (1 << 7);
 80005e8:	4b14      	ldr	r3, [pc, #80]	@ (800063c <EXTI9_5_IRQHandler+0xa0>)
 80005ea:	695b      	ldr	r3, [r3, #20]
 80005ec:	4a13      	ldr	r2, [pc, #76]	@ (800063c <EXTI9_5_IRQHandler+0xa0>)
 80005ee:	f043 0380 	orr.w	r3, r3, #128	@ 0x80
 80005f2:	6153      	str	r3, [r2, #20]
        G_IRQ_Callback[7]();
 80005f4:	4b12      	ldr	r3, [pc, #72]	@ (8000640 <EXTI9_5_IRQHandler+0xa4>)
 80005f6:	69db      	ldr	r3, [r3, #28]
 80005f8:	4798      	blx	r3
    }
    if (EXTI->PR & (1 << 8))
 80005fa:	4b10      	ldr	r3, [pc, #64]	@ (800063c <EXTI9_5_IRQHandler+0xa0>)
 80005fc:	695b      	ldr	r3, [r3, #20]
 80005fe:	f403 7380 	and.w	r3, r3, #256	@ 0x100
 8000602:	2b00      	cmp	r3, #0
 8000604:	d008      	beq.n	8000618 <EXTI9_5_IRQHandler+0x7c>
    {
        EXTI->PR |= (1 << 8);
 8000606:	4b0d      	ldr	r3, [pc, #52]	@ (800063c <EXTI9_5_IRQHandler+0xa0>)
 8000608:	695b      	ldr	r3, [r3, #20]
 800060a:	4a0c      	ldr	r2, [pc, #48]	@ (800063c <EXTI9_5_IRQHandler+0xa0>)
 800060c:	f443 7380 	orr.w	r3, r3, #256	@ 0x100
 8000610:	6153      	str	r3, [r2, #20]
        G_IRQ_Callback[8]();
 8000612:	4b0b      	ldr	r3, [pc, #44]	@ (8000640 <EXTI9_5_IRQHandler+0xa4>)
 8000614:	6a1b      	ldr	r3, [r3, #32]
 8000616:	4798      	blx	r3
    }
    if (EXTI->PR & (1 << 9))
 8000618:	4b08      	ldr	r3, [pc, #32]	@ (800063c <EXTI9_5_IRQHandler+0xa0>)
 800061a:	695b      	ldr	r3, [r3, #20]
 800061c:	f403 7300 	and.w	r3, r3, #512	@ 0x200
 8000620:	2b00      	cmp	r3, #0
 8000622:	d008      	beq.n	8000636 <EXTI9_5_IRQHandler+0x9a>
    {
        EXTI->PR |= (1 << 9);
 8000624:	4b05      	ldr	r3, [pc, #20]	@ (800063c <EXTI9_5_IRQHandler+0xa0>)
 8000626:	695b      	ldr	r3, [r3, #20]
 8000628:	4a04      	ldr	r2, [pc, #16]	@ (800063c <EXTI9_5_IRQHandler+0xa0>)
 800062a:	f443 7300 	orr.w	r3, r3, #512	@ 0x200
 800062e:	6153      	str	r3, [r2, #20]
        G_IRQ_Callback[9]();
 8000630:	4b03      	ldr	r3, [pc, #12]	@ (8000640 <EXTI9_5_IRQHandler+0xa4>)
 8000632:	6a5b      	ldr	r3, [r3, #36]	@ 0x24
 8000634:	4798      	blx	r3
    }
}
 8000636:	bf00      	nop
 8000638:	bd80      	pop	{r7, pc}
 800063a:	bf00      	nop
 800063c:	40010400 	.word	0x40010400
 8000640:	2000001c 	.word	0x2000001c

08000644 <MCAL_UART_Init>:
 * @param USARTx: Specifies the USART peripheral. This parameter can be USART1, USART2, or USART3.
 * @param UART_Config: Pointer to a UART_Config structure that contains the configuration information for the specified USART peripheral.
 * @return None
 */
void MCAL_UART_Init(USART_TypeDef *USARTx, UART_Config *UART_Config)
{
 8000644:	b580      	push	{r7, lr}
 8000646:	b084      	sub	sp, #16
 8000648:	af00      	add	r7, sp, #0
 800064a:	6078      	str	r0, [r7, #4]
 800064c:	6039      	str	r1, [r7, #0]
    uint32_t pclk, BRR;

    if (USARTx == USART1)
 800064e:	687b      	ldr	r3, [r7, #4]
 8000650:	4a55      	ldr	r2, [pc, #340]	@ (80007a8 <MCAL_UART_Init+0x164>)
 8000652:	4293      	cmp	r3, r2
 8000654:	d109      	bne.n	800066a <MCAL_UART_Init+0x26>
    {
        GL_USART1 = UART_Config;
 8000656:	4a55      	ldr	r2, [pc, #340]	@ (80007ac <MCAL_UART_Init+0x168>)
 8000658:	683b      	ldr	r3, [r7, #0]
 800065a:	6013      	str	r3, [r2, #0]
        RCC_USART1_CLK_EN();
 800065c:	4b54      	ldr	r3, [pc, #336]	@ (80007b0 <MCAL_UART_Init+0x16c>)
 800065e:	699b      	ldr	r3, [r3, #24]
 8000660:	4a53      	ldr	r2, [pc, #332]	@ (80007b0 <MCAL_UART_Init+0x16c>)
 8000662:	f443 4380 	orr.w	r3, r3, #16384	@ 0x4000
 8000666:	6193      	str	r3, [r2, #24]
 8000668:	e01a      	b.n	80006a0 <MCAL_UART_Init+0x5c>
    }
    else if (USARTx == USART2)
 800066a:	687b      	ldr	r3, [r7, #4]
 800066c:	4a51      	ldr	r2, [pc, #324]	@ (80007b4 <MCAL_UART_Init+0x170>)
 800066e:	4293      	cmp	r3, r2
 8000670:	d109      	bne.n	8000686 <MCAL_UART_Init+0x42>
    {
        GL_USART2 = UART_Config;
 8000672:	4a51      	ldr	r2, [pc, #324]	@ (80007b8 <MCAL_UART_Init+0x174>)
 8000674:	683b      	ldr	r3, [r7, #0]
 8000676:	6013      	str	r3, [r2, #0]
        RCC_USART2_CLK_EN();
 8000678:	4b4d      	ldr	r3, [pc, #308]	@ (80007b0 <MCAL_UART_Init+0x16c>)
 800067a:	69db      	ldr	r3, [r3, #28]
 800067c:	4a4c      	ldr	r2, [pc, #304]	@ (80007b0 <MCAL_UART_Init+0x16c>)
 800067e:	f443 3300 	orr.w	r3, r3, #131072	@ 0x20000
 8000682:	61d3      	str	r3, [r2, #28]
 8000684:	e00c      	b.n	80006a0 <MCAL_UART_Init+0x5c>
    }
    else if (USARTx == USART3)
 8000686:	687b      	ldr	r3, [r7, #4]
 8000688:	4a4c      	ldr	r2, [pc, #304]	@ (80007bc <MCAL_UART_Init+0x178>)
 800068a:	4293      	cmp	r3, r2
 800068c:	d108      	bne.n	80006a0 <MCAL_UART_Init+0x5c>
    {
        GL_USART3 = UART_Config;
 800068e:	4a4c      	ldr	r2, [pc, #304]	@ (80007c0 <MCAL_UART_Init+0x17c>)
 8000690:	683b      	ldr	r3, [r7, #0]
 8000692:	6013      	str	r3, [r2, #0]
        RCC_USART3_CLK_EN();
 8000694:	4b46      	ldr	r3, [pc, #280]	@ (80007b0 <MCAL_UART_Init+0x16c>)
 8000696:	69db      	ldr	r3, [r3, #28]
 8000698:	4a45      	ldr	r2, [pc, #276]	@ (80007b0 <MCAL_UART_Init+0x16c>)
 800069a:	f443 2380 	orr.w	r3, r3, #262144	@ 0x40000
 800069e:	61d3      	str	r3, [r2, #28]
    }

    USARTx->CR1 |= (1 << 13); // USART enable
 80006a0:	687b      	ldr	r3, [r7, #4]
 80006a2:	68db      	ldr	r3, [r3, #12]
 80006a4:	f443 5200 	orr.w	r2, r3, #8192	@ 0x2000
 80006a8:	687b      	ldr	r3, [r7, #4]
 80006aa:	60da      	str	r2, [r3, #12]

    USARTx->CR1 |= UART_Config->USART_Mode;
 80006ac:	687b      	ldr	r3, [r7, #4]
 80006ae:	68db      	ldr	r3, [r3, #12]
 80006b0:	683a      	ldr	r2, [r7, #0]
 80006b2:	7812      	ldrb	r2, [r2, #0]
 80006b4:	431a      	orrs	r2, r3
 80006b6:	687b      	ldr	r3, [r7, #4]
 80006b8:	60da      	str	r2, [r3, #12]
    USARTx->CR1 |= UART_Config->PayLoad_Length;
 80006ba:	687b      	ldr	r3, [r7, #4]
 80006bc:	68db      	ldr	r3, [r3, #12]
 80006be:	683a      	ldr	r2, [r7, #0]
 80006c0:	7a12      	ldrb	r2, [r2, #8]
 80006c2:	431a      	orrs	r2, r3
 80006c4:	687b      	ldr	r3, [r7, #4]
 80006c6:	60da      	str	r2, [r3, #12]
    USARTx->CR2 |= UART_Config->StopBits;
 80006c8:	687b      	ldr	r3, [r7, #4]
 80006ca:	691b      	ldr	r3, [r3, #16]
 80006cc:	683a      	ldr	r2, [r7, #0]
 80006ce:	7a92      	ldrb	r2, [r2, #10]
 80006d0:	431a      	orrs	r2, r3
 80006d2:	687b      	ldr	r3, [r7, #4]
 80006d4:	611a      	str	r2, [r3, #16]
    USARTx->CR3 |= UART_Config->HwFlowCtl;
 80006d6:	687b      	ldr	r3, [r7, #4]
 80006d8:	695b      	ldr	r3, [r3, #20]
 80006da:	683a      	ldr	r2, [r7, #0]
 80006dc:	7ad2      	ldrb	r2, [r2, #11]
 80006de:	431a      	orrs	r2, r3
 80006e0:	687b      	ldr	r3, [r7, #4]
 80006e2:	615a      	str	r2, [r3, #20]

    if (USARTx == USART1)
 80006e4:	687b      	ldr	r3, [r7, #4]
 80006e6:	4a30      	ldr	r2, [pc, #192]	@ (80007a8 <MCAL_UART_Init+0x164>)
 80006e8:	4293      	cmp	r3, r2
 80006ea:	d103      	bne.n	80006f4 <MCAL_UART_Init+0xb0>
    {
        pclk = MCAL_RCC_Get_PCLK2_Freq();
 80006ec:	f7ff fee8 	bl	80004c0 <MCAL_RCC_Get_PCLK2_Freq>
 80006f0:	60f8      	str	r0, [r7, #12]
 80006f2:	e002      	b.n	80006fa <MCAL_UART_Init+0xb6>
    }
    else
    {
        pclk = MCAL_RCC_Get_PCLK1_Freq();
 80006f4:	f7ff fed0 	bl	8000498 <MCAL_RCC_Get_PCLK1_Freq>
 80006f8:	60f8      	str	r0, [r7, #12]
    }
    BRR = UART_BRR_Register(pclk, UART_Config->BaudRate);
 80006fa:	683b      	ldr	r3, [r7, #0]
 80006fc:	685b      	ldr	r3, [r3, #4]
 80006fe:	011b      	lsls	r3, r3, #4
 8000700:	68fa      	ldr	r2, [r7, #12]
 8000702:	fbb2 f3f3 	udiv	r3, r2, r3
 8000706:	0119      	lsls	r1, r3, #4
 8000708:	68fa      	ldr	r2, [r7, #12]
 800070a:	4613      	mov	r3, r2
 800070c:	009b      	lsls	r3, r3, #2
 800070e:	4413      	add	r3, r2
 8000710:	009a      	lsls	r2, r3, #2
 8000712:	441a      	add	r2, r3
 8000714:	683b      	ldr	r3, [r7, #0]
 8000716:	685b      	ldr	r3, [r3, #4]
 8000718:	009b      	lsls	r3, r3, #2
 800071a:	fbb2 f2f3 	udiv	r2, r2, r3
 800071e:	683b      	ldr	r3, [r7, #0]
 8000720:	685b      	ldr	r3, [r3, #4]
 8000722:	011b      	lsls	r3, r3, #4
 8000724:	68f8      	ldr	r0, [r7, #12]
 8000726:	fbb0 f3f3 	udiv	r3, r0, r3
 800072a:	2064      	movs	r0, #100	@ 0x64
 800072c:	fb00 f303 	mul.w	r3, r0, r3
 8000730:	1ad3      	subs	r3, r2, r3
 8000732:	011b      	lsls	r3, r3, #4
 8000734:	4a23      	ldr	r2, [pc, #140]	@ (80007c4 <MCAL_UART_Init+0x180>)
 8000736:	fba2 2303 	umull	r2, r3, r2, r3
 800073a:	095b      	lsrs	r3, r3, #5
 800073c:	f003 030f 	and.w	r3, r3, #15
 8000740:	430b      	orrs	r3, r1
 8000742:	60bb      	str	r3, [r7, #8]

    USARTx->BRR = BRR;
 8000744:	687b      	ldr	r3, [r7, #4]
 8000746:	68ba      	ldr	r2, [r7, #8]
 8000748:	609a      	str	r2, [r3, #8]
    if (UART_Config->IRQ_Enable != UART_IRQ_Enable_NONE)
 800074a:	683b      	ldr	r3, [r7, #0]
 800074c:	7b1b      	ldrb	r3, [r3, #12]
 800074e:	2b00      	cmp	r3, #0
 8000750:	d026      	beq.n	80007a0 <MCAL_UART_Init+0x15c>
    {
        USARTx->CR1 |= (UART_Config->IRQ_Enable);
 8000752:	687b      	ldr	r3, [r7, #4]
 8000754:	68db      	ldr	r3, [r3, #12]
 8000756:	683a      	ldr	r2, [r7, #0]
 8000758:	7b12      	ldrb	r2, [r2, #12]
 800075a:	431a      	orrs	r2, r3
 800075c:	687b      	ldr	r3, [r7, #4]
 800075e:	60da      	str	r2, [r3, #12]

        if (USARTx == USART1)
 8000760:	687b      	ldr	r3, [r7, #4]
 8000762:	4a11      	ldr	r2, [pc, #68]	@ (80007a8 <MCAL_UART_Init+0x164>)
 8000764:	4293      	cmp	r3, r2
 8000766:	d106      	bne.n	8000776 <MCAL_UART_Init+0x132>
            NVIC_IRQ37_USART1_Enable();
 8000768:	4b17      	ldr	r3, [pc, #92]	@ (80007c8 <MCAL_UART_Init+0x184>)
 800076a:	681b      	ldr	r3, [r3, #0]
 800076c:	4a16      	ldr	r2, [pc, #88]	@ (80007c8 <MCAL_UART_Init+0x184>)
 800076e:	f043 0320 	orr.w	r3, r3, #32
 8000772:	6013      	str	r3, [r2, #0]
        else if (USARTx == USART2)
            NVIC_IRQ38_USART2_Enable();
        else if (USARTx == USART3)
            NVIC_IRQ39_USART3_Enable();
    }
}
 8000774:	e014      	b.n	80007a0 <MCAL_UART_Init+0x15c>
        else if (USARTx == USART2)
 8000776:	687b      	ldr	r3, [r7, #4]
 8000778:	4a0e      	ldr	r2, [pc, #56]	@ (80007b4 <MCAL_UART_Init+0x170>)
 800077a:	4293      	cmp	r3, r2
 800077c:	d106      	bne.n	800078c <MCAL_UART_Init+0x148>
            NVIC_IRQ38_USART2_Enable();
 800077e:	4b12      	ldr	r3, [pc, #72]	@ (80007c8 <MCAL_UART_Init+0x184>)
 8000780:	681b      	ldr	r3, [r3, #0]
 8000782:	4a11      	ldr	r2, [pc, #68]	@ (80007c8 <MCAL_UART_Init+0x184>)
 8000784:	f043 0340 	orr.w	r3, r3, #64	@ 0x40
 8000788:	6013      	str	r3, [r2, #0]
}
 800078a:	e009      	b.n	80007a0 <MCAL_UART_Init+0x15c>
        else if (USARTx == USART3)
 800078c:	687b      	ldr	r3, [r7, #4]
 800078e:	4a0b      	ldr	r2, [pc, #44]	@ (80007bc <MCAL_UART_Init+0x178>)
 8000790:	4293      	cmp	r3, r2
 8000792:	d105      	bne.n	80007a0 <MCAL_UART_Init+0x15c>
            NVIC_IRQ39_USART3_Enable();
 8000794:	4b0c      	ldr	r3, [pc, #48]	@ (80007c8 <MCAL_UART_Init+0x184>)
 8000796:	681b      	ldr	r3, [r3, #0]
 8000798:	4a0b      	ldr	r2, [pc, #44]	@ (80007c8 <MCAL_UART_Init+0x184>)
 800079a:	f043 0380 	orr.w	r3, r3, #128	@ 0x80
 800079e:	6013      	str	r3, [r2, #0]
}
 80007a0:	bf00      	nop
 80007a2:	3710      	adds	r7, #16
 80007a4:	46bd      	mov	sp, r7
 80007a6:	bd80      	pop	{r7, pc}
 80007a8:	40013800 	.word	0x40013800
 80007ac:	2000005c 	.word	0x2000005c
 80007b0:	40021000 	.word	0x40021000
 80007b4:	40014400 	.word	0x40014400
 80007b8:	20000060 	.word	0x20000060
 80007bc:	40014800 	.word	0x40014800
 80007c0:	20000064 	.word	0x20000064
 80007c4:	51eb851f 	.word	0x51eb851f
 80007c8:	e000e104 	.word	0xe000e104

080007cc <MCAL_UART_SendData>:
 * @param pTxBuffer: Pointer to the data buffer to be sent.
 * @param PollingEn: Specifies the polling mechanism, enable or disable.
 * @return None
 */
void MCAL_UART_SendData(USART_TypeDef *USARTx, uint16_t *pTxBuffer, enum Polling_mechism PollingEn)
{
 80007cc:	b480      	push	{r7}
 80007ce:	b087      	sub	sp, #28
 80007d0:	af00      	add	r7, sp, #0
 80007d2:	60f8      	str	r0, [r7, #12]
 80007d4:	60b9      	str	r1, [r7, #8]
 80007d6:	4613      	mov	r3, r2
 80007d8:	71fb      	strb	r3, [r7, #7]
    if (PollingEn == enable)
 80007da:	79fb      	ldrb	r3, [r7, #7]
 80007dc:	2b00      	cmp	r3, #0
 80007de:	d106      	bne.n	80007ee <MCAL_UART_SendData+0x22>
    {
        while (!(USARTx->SR & (1 << 7)));
 80007e0:	bf00      	nop
 80007e2:	68fb      	ldr	r3, [r7, #12]
 80007e4:	681b      	ldr	r3, [r3, #0]
 80007e6:	f003 0380 	and.w	r3, r3, #128	@ 0x80
 80007ea:	2b00      	cmp	r3, #0
 80007ec:	d0f9      	beq.n	80007e2 <MCAL_UART_SendData+0x16>
    }

    UART_Config *config = NULL;
 80007ee:	2300      	movs	r3, #0
 80007f0:	617b      	str	r3, [r7, #20]
    if (USARTx == USART1) config = GL_USART1;
 80007f2:	68fb      	ldr	r3, [r7, #12]
 80007f4:	4a0f      	ldr	r2, [pc, #60]	@ (8000834 <MCAL_UART_SendData+0x68>)
 80007f6:	4293      	cmp	r3, r2
 80007f8:	d103      	bne.n	8000802 <MCAL_UART_SendData+0x36>
 80007fa:	4b0f      	ldr	r3, [pc, #60]	@ (8000838 <MCAL_UART_SendData+0x6c>)
 80007fc:	681b      	ldr	r3, [r3, #0]
 80007fe:	617b      	str	r3, [r7, #20]
 8000800:	e00e      	b.n	8000820 <MCAL_UART_SendData+0x54>
    else if (USARTx == USART2) config = GL_USART2;
 8000802:	68fb      	ldr	r3, [r7, #12]
 8000804:	4a0d      	ldr	r2, [pc, #52]	@ (800083c <MCAL_UART_SendData+0x70>)
 8000806:	4293      	cmp	r3, r2
 8000808:	d103      	bne.n	8000812 <MCAL_UART_SendData+0x46>
 800080a:	4b0d      	ldr	r3, [pc, #52]	@ (8000840 <MCAL_UART_SendData+0x74>)
 800080c:	681b      	ldr	r3, [r3, #0]
 800080e:	617b      	str	r3, [r7, #20]
 8000810:	e006      	b.n	8000820 <MCAL_UART_SendData+0x54>
    else if (USARTx == USART3) config = GL_USART3;
 8000812:	68fb      	ldr	r3, [r7, #12]
 8000814:	4a0b      	ldr	r2, [pc, #44]	@ (8000844 <MCAL_UART_SendData+0x78>)
 8000816:	4293      	cmp	r3, r2
 8000818:	d102      	bne.n	8000820 <MCAL_UART_SendData+0x54>
 800081a:	4b0b      	ldr	r3, [pc, #44]	@ (8000848 <MCAL_UART_SendData+0x7c>)
 800081c:	681b      	ldr	r3, [r3, #0]
 800081e:	617b      	str	r3, [r7, #20]
    {
        USARTx->DR = (*pTxBuffer & (uint16_t)0x01FF);
    }
    else
    {
        USARTx->DR = (*pTxBuffer & (uint16_t)0xFF);
 8000820:	68bb      	ldr	r3, [r7, #8]
 8000822:	881b      	ldrh	r3, [r3, #0]
 8000824:	b2da      	uxtb	r2, r3
 8000826:	68fb      	ldr	r3, [r7, #12]
 8000828:	605a      	str	r2, [r3, #4]
    }
}
 800082a:	bf00      	nop
 800082c:	371c      	adds	r7, #28
 800082e:	46bd      	mov	sp, r7
 8000830:	bc80      	pop	{r7}
 8000832:	4770      	bx	lr
 8000834:	40013800 	.word	0x40013800
 8000838:	2000005c 	.word	0x2000005c
 800083c:	40014400 	.word	0x40014400
 8000840:	20000060 	.word	0x20000060
 8000844:	40014800 	.word	0x40014800
 8000848:	20000064 	.word	0x20000064

0800084c <MCAL_UART_ReceiveData>:
 * @param pRxBuffer: Pointer to the buffer that will store the received data.
 * @param PollingEn: Specifies the polling mechanism, enable or disable.
 * @return None
 */
void MCAL_UART_ReceiveData(USART_TypeDef *USARTx, uint16_t *pRxBuffer, enum Polling_mechism PollingEn)
{
 800084c:	b480      	push	{r7}
 800084e:	b087      	sub	sp, #28
 8000850:	af00      	add	r7, sp, #0
 8000852:	60f8      	str	r0, [r7, #12]
 8000854:	60b9      	str	r1, [r7, #8]
 8000856:	4613      	mov	r3, r2
 8000858:	71fb      	strb	r3, [r7, #7]
    if (PollingEn == enable)
 800085a:	79fb      	ldrb	r3, [r7, #7]
 800085c:	2b00      	cmp	r3, #0
 800085e:	d106      	bne.n	800086e <MCAL_UART_ReceiveData+0x22>
    {
        while (!(USARTx->SR & (1 << 5)));
 8000860:	bf00      	nop
 8000862:	68fb      	ldr	r3, [r7, #12]
 8000864:	681b      	ldr	r3, [r3, #0]
 8000866:	f003 0320 	and.w	r3, r3, #32
 800086a:	2b00      	cmp	r3, #0
 800086c:	d0f9      	beq.n	8000862 <MCAL_UART_ReceiveData+0x16>
    }

    UART_Config *config = NULL;
 800086e:	2300      	movs	r3, #0
 8000870:	617b      	str	r3, [r7, #20]
    if (USARTx == USART1) config = GL_USART1;
 8000872:	68fb      	ldr	r3, [r7, #12]
 8000874:	4a17      	ldr	r2, [pc, #92]	@ (80008d4 <MCAL_UART_ReceiveData+0x88>)
 8000876:	4293      	cmp	r3, r2
 8000878:	d103      	bne.n	8000882 <MCAL_UART_ReceiveData+0x36>
 800087a:	4b17      	ldr	r3, [pc, #92]	@ (80008d8 <MCAL_UART_ReceiveData+0x8c>)
 800087c:	681b      	ldr	r3, [r3, #0]
 800087e:	617b      	str	r3, [r7, #20]
 8000880:	e00e      	b.n	80008a0 <MCAL_UART_ReceiveData+0x54>
    else if (USARTx == USART2) config = GL_USART2;
 8000882:	68fb      	ldr	r3, [r7, #12]
 8000884:	4a15      	ldr	r2, [pc, #84]	@ (80008dc <MCAL_UART_ReceiveData+0x90>)
 8000886:	4293      	cmp	r3, r2
 8000888:	d103      	bne.n	8000892 <MCAL_UART_ReceiveData+0x46>
 800088a:	4b15      	ldr	r3, [pc, #84]	@ (80008e0 <MCAL_UART_ReceiveData+0x94>)
 800088c:	681b      	ldr	r3, [r3, #0]
 800088e:	617b      	str	r3, [r7, #20]
 8000890:	e006      	b.n	80008a0 <MCAL_UART_ReceiveData+0x54>
    else if (USARTx == USART3) config = GL_USART3;
 8000892:	68fb      	ldr	r3, [r7, #12]
 8000894:	4a13      	ldr	r2, [pc, #76]	@ (80008e4 <MCAL_UART_ReceiveData+0x98>)
 8000896:	4293      	cmp	r3, r2
 8000898:	d102      	bne.n	80008a0 <MCAL_UART_ReceiveData+0x54>
 800089a:	4b13      	ldr	r3, [pc, #76]	@ (80008e8 <MCAL_UART_ReceiveData+0x9c>)
 800089c:	681b      	ldr	r3, [r3, #0]
 800089e:	617b      	str	r3, [r7, #20]
            *((uint16_t*)pRxBuffer) = (USARTx->DR & (uint8_t)0xFF);
        }
    }
    else
    {
        if (config->Parity == UART_Parity_OFF)
 80008a0:	697b      	ldr	r3, [r7, #20]
 80008a2:	7a5b      	ldrb	r3, [r3, #9]
 80008a4:	2b00      	cmp	r3, #0
 80008a6:	d107      	bne.n	80008b8 <MCAL_UART_ReceiveData+0x6c>
        {
            *((uint16_t*)pRxBuffer) = (USARTx->DR & (uint8_t)0xFF);
 80008a8:	68fb      	ldr	r3, [r7, #12]
 80008aa:	685b      	ldr	r3, [r3, #4]
 80008ac:	b29b      	uxth	r3, r3
 80008ae:	b2db      	uxtb	r3, r3
 80008b0:	b29a      	uxth	r2, r3
 80008b2:	68bb      	ldr	r3, [r7, #8]
 80008b4:	801a      	strh	r2, [r3, #0]
        else
        {
            *((uint16_t*)pRxBuffer) = (USARTx->DR & (uint8_t)0x7F);
        }
    }
}
 80008b6:	e007      	b.n	80008c8 <MCAL_UART_ReceiveData+0x7c>
            *((uint16_t*)pRxBuffer) = (USARTx->DR & (uint8_t)0x7F);
 80008b8:	68fb      	ldr	r3, [r7, #12]
 80008ba:	685b      	ldr	r3, [r3, #4]
 80008bc:	b29b      	uxth	r3, r3
 80008be:	f003 037f 	and.w	r3, r3, #127	@ 0x7f
 80008c2:	b29a      	uxth	r2, r3
 80008c4:	68bb      	ldr	r3, [r7, #8]
 80008c6:	801a      	strh	r2, [r3, #0]
}
 80008c8:	bf00      	nop
 80008ca:	371c      	adds	r7, #28
 80008cc:	46bd      	mov	sp, r7
 80008ce:	bc80      	pop	{r7}
 80008d0:	4770      	bx	lr
 80008d2:	bf00      	nop
 80008d4:	40013800 	.word	0x40013800
 80008d8:	2000005c 	.word	0x2000005c
 80008dc:	40014400 	.word	0x40014400
 80008e0:	20000060 	.word	0x20000060
 80008e4:	40014800 	.word	0x40014800
 80008e8:	20000064 	.word	0x20000064

080008ec <MCAL_UART_GPIO_Set_Pins>:
 * @brief Configures the GPIO pins for the specified USART peripheral.
 * @param USARTx: Specifies the USART peripheral. This parameter can be USART1, USART2, or USART3.
 * @return None
 */
void MCAL_UART_GPIO_Set_Pins(USART_TypeDef *USARTx)
{
 80008ec:	b580      	push	{r7, lr}
 80008ee:	b084      	sub	sp, #16
 80008f0:	af00      	add	r7, sp, #0
 80008f2:	6078      	str	r0, [r7, #4]
    GPIO_PinConfig_t PinCfg;

    if (USARTx == USART1)
 80008f4:	687b      	ldr	r3, [r7, #4]
 80008f6:	4a2b      	ldr	r2, [pc, #172]	@ (80009a4 <MCAL_UART_GPIO_Set_Pins+0xb8>)
 80008f8:	4293      	cmp	r3, r2
 80008fa:	d118      	bne.n	800092e <MCAL_UART_GPIO_Set_Pins+0x42>
    {
        // PA9 TX, PA10 RX, PA11 CTS, PA12 RTS
        PinCfg.GPIO_PinNumber = GPIO_PIN_9;
 80008fc:	f44f 7300 	mov.w	r3, #512	@ 0x200
 8000900:	81bb      	strh	r3, [r7, #12]
        PinCfg.GPIO_MODE = GPIO_MODE_OUTPUT_AF_PP;
 8000902:	2306      	movs	r3, #6
 8000904:	73bb      	strb	r3, [r7, #14]
        PinCfg.GPIO_Output_Speed = GPIO_SPEED_50M;
 8000906:	2303      	movs	r3, #3
 8000908:	73fb      	strb	r3, [r7, #15]
        MCAL_GPIO_Init(GPIOA, &PinCfg);
 800090a:	f107 030c 	add.w	r3, r7, #12
 800090e:	4619      	mov	r1, r3
 8000910:	4825      	ldr	r0, [pc, #148]	@ (80009a8 <MCAL_UART_GPIO_Set_Pins+0xbc>)
 8000912:	f7ff fce5 	bl	80002e0 <MCAL_GPIO_Init>

        PinCfg.GPIO_PinNumber = GPIO_PIN_10;
 8000916:	f44f 6380 	mov.w	r3, #1024	@ 0x400
 800091a:	81bb      	strh	r3, [r7, #12]
        PinCfg.GPIO_MODE = GPIO_MODE_AF_INPUT;
 800091c:	2308      	movs	r3, #8
 800091e:	73bb      	strb	r3, [r7, #14]
        MCAL_GPIO_Init(GPIOA, &PinCfg);
 8000920:	f107 030c 	add.w	r3, r7, #12
 8000924:	4619      	mov	r1, r3
 8000926:	4820      	ldr	r0, [pc, #128]	@ (80009a8 <MCAL_UART_GPIO_Set_Pins+0xbc>)
 8000928:	f7ff fcda 	bl	80002e0 <MCAL_GPIO_Init>
            PinCfg.GPIO_MODE = GPIO_MODE_OUTPUT_AF_PP;
            PinCfg.GPIO_Output_Speed = GPIO_SPEED_10M;
            MCAL_GPIO_Init(GPIOB, &PinCfg);
        }
    }
}
 800092c:	e036      	b.n	800099c <MCAL_UART_GPIO_Set_Pins+0xb0>
    else if (USARTx == USART2)
 800092e:	687b      	ldr	r3, [r7, #4]
 8000930:	4a1e      	ldr	r2, [pc, #120]	@ (80009ac <MCAL_UART_GPIO_Set_Pins+0xc0>)
 8000932:	4293      	cmp	r3, r2
 8000934:	d116      	bne.n	8000964 <MCAL_UART_GPIO_Set_Pins+0x78>
        PinCfg.GPIO_PinNumber = GPIO_PIN_2;
 8000936:	2304      	movs	r3, #4
 8000938:	81bb      	strh	r3, [r7, #12]
        PinCfg.GPIO_MODE = GPIO_MODE_OUTPUT_AF_PP;
 800093a:	2306      	movs	r3, #6
 800093c:	73bb      	strb	r3, [r7, #14]
        PinCfg.GPIO_Output_Speed = GPIO_SPEED_10M;
 800093e:	2301      	movs	r3, #1
 8000940:	73fb      	strb	r3, [r7, #15]
        MCAL_GPIO_Init(GPIOA, &PinCfg);
 8000942:	f107 030c 	add.w	r3, r7, #12
 8000946:	4619      	mov	r1, r3
 8000948:	4817      	ldr	r0, [pc, #92]	@ (80009a8 <MCAL_UART_GPIO_Set_Pins+0xbc>)
 800094a:	f7ff fcc9 	bl	80002e0 <MCAL_GPIO_Init>
        PinCfg.GPIO_PinNumber = GPIO_PIN_3;
 800094e:	2308      	movs	r3, #8
 8000950:	81bb      	strh	r3, [r7, #12]
        PinCfg.GPIO_MODE = GPIO_MODE_AF_INPUT;
 8000952:	2308      	movs	r3, #8
 8000954:	73bb      	strb	r3, [r7, #14]
        MCAL_GPIO_Init(GPIOA, &PinCfg);
 8000956:	f107 030c 	add.w	r3, r7, #12
 800095a:	4619      	mov	r1, r3
 800095c:	4812      	ldr	r0, [pc, #72]	@ (80009a8 <MCAL_UART_GPIO_Set_Pins+0xbc>)
 800095e:	f7ff fcbf 	bl	80002e0 <MCAL_GPIO_Init>
}
 8000962:	e01b      	b.n	800099c <MCAL_UART_GPIO_Set_Pins+0xb0>
    else if (USARTx == USART3)
 8000964:	687b      	ldr	r3, [r7, #4]
 8000966:	4a12      	ldr	r2, [pc, #72]	@ (80009b0 <MCAL_UART_GPIO_Set_Pins+0xc4>)
 8000968:	4293      	cmp	r3, r2
 800096a:	d117      	bne.n	800099c <MCAL_UART_GPIO_Set_Pins+0xb0>
        PinCfg.GPIO_PinNumber = GPIO_PIN_10;
 800096c:	f44f 6380 	mov.w	r3, #1024	@ 0x400
 8000970:	81bb      	strh	r3, [r7, #12]
        PinCfg.GPIO_MODE = GPIO_MODE_OUTPUT_AF_PP;
 8000972:	2306      	movs	r3, #6
 8000974:	73bb      	strb	r3, [r7, #14]
        PinCfg.GPIO_Output_Speed = GPIO_SPEED_10M;
 8000976:	2301      	movs	r3, #1
 8000978:	73fb      	strb	r3, [r7, #15]
        MCAL_GPIO_Init(GPIOB, &PinCfg);
 800097a:	f107 030c 	add.w	r3, r7, #12
 800097e:	4619      	mov	r1, r3
 8000980:	480c      	ldr	r0, [pc, #48]	@ (80009b4 <MCAL_UART_GPIO_Set_Pins+0xc8>)
 8000982:	f7ff fcad 	bl	80002e0 <MCAL_GPIO_Init>
        PinCfg.GPIO_PinNumber = GPIO_PIN_11;
 8000986:	f44f 6300 	mov.w	r3, #2048	@ 0x800
 800098a:	81bb      	strh	r3, [r7, #12]
        PinCfg.GPIO_MODE = GPIO_MODE_AF_INPUT;
 800098c:	2308      	movs	r3, #8
 800098e:	73bb      	strb	r3, [r7, #14]
        MCAL_GPIO_Init(GPIOB, &PinCfg);
 8000990:	f107 030c 	add.w	r3, r7, #12
 8000994:	4619      	mov	r1, r3
 8000996:	4807      	ldr	r0, [pc, #28]	@ (80009b4 <MCAL_UART_GPIO_Set_Pins+0xc8>)
 8000998:	f7ff fca2 	bl	80002e0 <MCAL_GPIO_Init>
}
 800099c:	bf00      	nop
 800099e:	3710      	adds	r7, #16
 80009a0:	46bd      	mov	sp, r7
 80009a2:	bd80      	pop	{r7, pc}
 80009a4:	40013800 	.word	0x40013800
 80009a8:	40010800 	.word	0x40010800
 80009ac:	40014400 	.word	0x40014400
 80009b0:	40014800 	.word	0x40014800
 80009b4:	40010c00 	.word	0x40010c00

080009b8 <USART1_IRQHandler>:

// ISR
void USART1_IRQHandler(void)
{
 80009b8:	b580      	push	{r7, lr}
 80009ba:	af00      	add	r7, sp, #0
    GL_USART1->P_IRQ_CallBack();
 80009bc:	4b02      	ldr	r3, [pc, #8]	@ (80009c8 <USART1_IRQHandler+0x10>)
 80009be:	681b      	ldr	r3, [r3, #0]
 80009c0:	691b      	ldr	r3, [r3, #16]
 80009c2:	4798      	blx	r3
}
 80009c4:	bf00      	nop
 80009c6:	bd80      	pop	{r7, pc}
 80009c8:	2000005c 	.word	0x2000005c

080009cc <USART2_IRQHandler>:

void USART2_IRQHandler(void)
{
 80009cc:	b580      	push	{r7, lr}
 80009ce:	af00      	add	r7, sp, #0
    GL_USART2->P_IRQ_CallBack();
 80009d0:	4b02      	ldr	r3, [pc, #8]	@ (80009dc <USART2_IRQHandler+0x10>)
 80009d2:	681b      	ldr	r3, [r3, #0]
 80009d4:	691b      	ldr	r3, [r3, #16]
 80009d6:	4798      	blx	r3
}
 80009d8:	bf00      	nop
 80009da:	bd80      	pop	{r7, pc}
 80009dc:	20000060 	.word	0x20000060

080009e0 <USART3_IRQHandler>:

void USART3_IRQHandler(void)
{
 80009e0:	b580      	push	{r7, lr}
 80009e2:	af00      	add	r7, sp, #0
    GL_USART3->P_IRQ_CallBack();
 80009e4:	4b02      	ldr	r3, [pc, #8]	@ (80009f0 <USART3_IRQHandler+0x10>)
 80009e6:	681b      	ldr	r3, [r3, #0]
 80009e8:	691b      	ldr	r3, [r3, #16]
 80009ea:	4798      	blx	r3
}
 80009ec:	bf00      	nop
 80009ee:	bd80      	pop	{r7, pc}
 80009f0:	20000064 	.word	0x20000064

080009f4 <main>:

#include "stm32f103c6_EXTI_Driver.h"
#include "../STM32F103C6_Drivers/inc/stm32f103c6_USART_Driver.h"
 unsigned char c;
int main(void)
    {
 80009f4:	b580      	push	{r7, lr}
 80009f6:	b086      	sub	sp, #24
 80009f8:	af00      	add	r7, sp, #0
    RCC_GPIOA_CLK_EN();
 80009fa:	4b1b      	ldr	r3, [pc, #108]	@ (8000a68 <main+0x74>)
 80009fc:	699b      	ldr	r3, [r3, #24]
 80009fe:	4a1a      	ldr	r2, [pc, #104]	@ (8000a68 <main+0x74>)
 8000a00:	f043 0304 	orr.w	r3, r3, #4
 8000a04:	6193      	str	r3, [r2, #24]
    RCC_GPIOB_CLK_EN();
 8000a06:	4b18      	ldr	r3, [pc, #96]	@ (8000a68 <main+0x74>)
 8000a08:	699b      	ldr	r3, [r3, #24]
 8000a0a:	4a17      	ldr	r2, [pc, #92]	@ (8000a68 <main+0x74>)
 8000a0c:	f043 0308 	orr.w	r3, r3, #8
 8000a10:	6193      	str	r3, [r2, #24]
    RCC_USART1_CLK_EN();
 8000a12:	4b15      	ldr	r3, [pc, #84]	@ (8000a68 <main+0x74>)
 8000a14:	699b      	ldr	r3, [r3, #24]
 8000a16:	4a14      	ldr	r2, [pc, #80]	@ (8000a68 <main+0x74>)
 8000a18:	f443 4380 	orr.w	r3, r3, #16384	@ 0x4000
 8000a1c:	6193      	str	r3, [r2, #24]
    UART_Config uart;
    uart.BaudRate = UART_BaudRate_115200;
 8000a1e:	f44f 33e1 	mov.w	r3, #115200	@ 0x1c200
 8000a22:	60bb      	str	r3, [r7, #8]
    uart.HwFlowCtl = UART_HwFlowCtl_NONE;
 8000a24:	2300      	movs	r3, #0
 8000a26:	73fb      	strb	r3, [r7, #15]
    uart.IRQ_Enable = UART_IRQ_Enable_NONE;
 8000a28:	2300      	movs	r3, #0
 8000a2a:	743b      	strb	r3, [r7, #16]
    uart.P_IRQ_CallBack = NULL;
 8000a2c:	2300      	movs	r3, #0
 8000a2e:	617b      	str	r3, [r7, #20]
    uart.Parity = UART_Parity_OFF;
 8000a30:	2300      	movs	r3, #0
 8000a32:	737b      	strb	r3, [r7, #13]
    uart.PayLoad_Length = UART_PayLoad_Length8B;
 8000a34:	2300      	movs	r3, #0
 8000a36:	733b      	strb	r3, [r7, #12]
    uart.StopBits = UART_StopBits__1;
 8000a38:	2300      	movs	r3, #0
 8000a3a:	73bb      	strb	r3, [r7, #14]
    uart.USART_Mode = UART_Mode_TX_RX;
 8000a3c:	230c      	movs	r3, #12
 8000a3e:	713b      	strb	r3, [r7, #4]
    MCAL_UART_Init(USART1, &uart);
 8000a40:	1d3b      	adds	r3, r7, #4
 8000a42:	4619      	mov	r1, r3
 8000a44:	4809      	ldr	r0, [pc, #36]	@ (8000a6c <main+0x78>)
 8000a46:	f7ff fdfd 	bl	8000644 <MCAL_UART_Init>
    MCAL_UART_GPIO_Set_Pins(USART1);
 8000a4a:	4808      	ldr	r0, [pc, #32]	@ (8000a6c <main+0x78>)
 8000a4c:	f7ff ff4e 	bl	80008ec <MCAL_UART_GPIO_Set_Pins>
    while (1)
	{
	MCAL_UART_ReceiveData(USART1, &c, enable);
 8000a50:	2200      	movs	r2, #0
 8000a52:	4907      	ldr	r1, [pc, #28]	@ (8000a70 <main+0x7c>)
 8000a54:	4805      	ldr	r0, [pc, #20]	@ (8000a6c <main+0x78>)
 8000a56:	f7ff fef9 	bl	800084c <MCAL_UART_ReceiveData>
	MCAL_UART_SendData(USART1, &c, enable);
 8000a5a:	2200      	movs	r2, #0
 8000a5c:	4904      	ldr	r1, [pc, #16]	@ (8000a70 <main+0x7c>)
 8000a5e:	4803      	ldr	r0, [pc, #12]	@ (8000a6c <main+0x78>)
 8000a60:	f7ff feb4 	bl	80007cc <MCAL_UART_SendData>
	MCAL_UART_ReceiveData(USART1, &c, enable);
 8000a64:	bf00      	nop
 8000a66:	e7f3      	b.n	8000a50 <main+0x5c>
 8000a68:	40021000 	.word	0x40021000
 8000a6c:	40013800 	.word	0x40013800
 8000a70:	20000068 	.word	0x20000068

08000a74 <Reset_Handler>:

  .section .text.Reset_Handler
  .weak Reset_Handler
  .type Reset_Handler, %function
Reset_Handler:
  ldr   r0, =_estack
 8000a74:	480d      	ldr	r0, [pc, #52]	@ (8000aac <LoopForever+0x2>)
  mov   sp, r0          /* set stack pointer */
 8000a76:	4685      	mov	sp, r0
/* Call the clock system initialization function.*/
  bl  SystemInit
 8000a78:	f3af 8000 	nop.w

/* Copy the data segment initializers from flash to SRAM */
  ldr r0, =_sdata
 8000a7c:	480c      	ldr	r0, [pc, #48]	@ (8000ab0 <LoopForever+0x6>)
  ldr r1, =_edata
 8000a7e:	490d      	ldr	r1, [pc, #52]	@ (8000ab4 <LoopForever+0xa>)
  ldr r2, =_sidata
 8000a80:	4a0d      	ldr	r2, [pc, #52]	@ (8000ab8 <LoopForever+0xe>)
  movs r3, #0
 8000a82:	2300      	movs	r3, #0
  b LoopCopyDataInit
 8000a84:	e002      	b.n	8000a8c <LoopCopyDataInit>

08000a86 <CopyDataInit>:

CopyDataInit:
  ldr r4, [r2, r3]
 8000a86:	58d4      	ldr	r4, [r2, r3]
  str r4, [r0, r3]
 8000a88:	50c4      	str	r4, [r0, r3]
  adds r3, r3, #4
 8000a8a:	3304      	adds	r3, #4

08000a8c <LoopCopyDataInit>:

LoopCopyDataInit:
  adds r4, r0, r3
 8000a8c:	18c4      	adds	r4, r0, r3
  cmp r4, r1
 8000a8e:	428c      	cmp	r4, r1
  bcc CopyDataInit
 8000a90:	d3f9      	bcc.n	8000a86 <CopyDataInit>

/* Zero fill the bss segment. */
  ldr r2, =_sbss
 8000a92:	4a0a      	ldr	r2, [pc, #40]	@ (8000abc <LoopForever+0x12>)
  ldr r4, =_ebss
 8000a94:	4c0a      	ldr	r4, [pc, #40]	@ (8000ac0 <LoopForever+0x16>)
  movs r3, #0
 8000a96:	2300      	movs	r3, #0
  b LoopFillZerobss
 8000a98:	e001      	b.n	8000a9e <LoopFillZerobss>

08000a9a <FillZerobss>:

FillZerobss:
  str  r3, [r2]
 8000a9a:	6013      	str	r3, [r2, #0]
  adds r2, r2, #4
 8000a9c:	3204      	adds	r2, #4

08000a9e <LoopFillZerobss>:

LoopFillZerobss:
  cmp r2, r4
 8000a9e:	42a2      	cmp	r2, r4
  bcc FillZerobss
 8000aa0:	d3fb      	bcc.n	8000a9a <FillZerobss>

/* Call static constructors */
  bl __libc_init_array
 8000aa2:	f000 f811 	bl	8000ac8 <__libc_init_array>
/* Call the application's entry point.*/
  bl main
 8000aa6:	f7ff ffa5 	bl	80009f4 <main>

08000aaa <LoopForever>:

LoopForever:
  b LoopForever
 8000aaa:	e7fe      	b.n	8000aaa <LoopForever>
  ldr   r0, =_estack
 8000aac:	20002800 	.word	0x20002800
  ldr r0, =_sdata
 8000ab0:	20000000 	.word	0x20000000
  ldr r1, =_edata
 8000ab4:	20000000 	.word	0x20000000
  ldr r2, =_sidata
 8000ab8:	08000b48 	.word	0x08000b48
  ldr r2, =_sbss
 8000abc:	20000000 	.word	0x20000000
  ldr r4, =_ebss
 8000ac0:	2000006c 	.word	0x2000006c

08000ac4 <ADC1_2_IRQHandler>:
 * @retval : None
*/
  .section .text.Default_Handler,"ax",%progbits
Default_Handler:
Infinite_Loop:
  b Infinite_Loop
 8000ac4:	e7fe      	b.n	8000ac4 <ADC1_2_IRQHandler>
	...

08000ac8 <__libc_init_array>:
 8000ac8:	b570      	push	{r4, r5, r6, lr}
 8000aca:	2600      	movs	r6, #0
 8000acc:	4d0c      	ldr	r5, [pc, #48]	@ (8000b00 <__libc_init_array+0x38>)
 8000ace:	4c0d      	ldr	r4, [pc, #52]	@ (8000b04 <__libc_init_array+0x3c>)
 8000ad0:	1b64      	subs	r4, r4, r5
 8000ad2:	10a4      	asrs	r4, r4, #2
 8000ad4:	42a6      	cmp	r6, r4
 8000ad6:	d109      	bne.n	8000aec <__libc_init_array+0x24>
 8000ad8:	f000 f81a 	bl	8000b10 <_init>
 8000adc:	2600      	movs	r6, #0
 8000ade:	4d0a      	ldr	r5, [pc, #40]	@ (8000b08 <__libc_init_array+0x40>)
 8000ae0:	4c0a      	ldr	r4, [pc, #40]	@ (8000b0c <__libc_init_array+0x44>)
 8000ae2:	1b64      	subs	r4, r4, r5
 8000ae4:	10a4      	asrs	r4, r4, #2
 8000ae6:	42a6      	cmp	r6, r4
 8000ae8:	d105      	bne.n	8000af6 <__libc_init_array+0x2e>
 8000aea:	bd70      	pop	{r4, r5, r6, pc}
 8000aec:	f855 3b04 	ldr.w	r3, [r5], #4
 8000af0:	4798      	blx	r3
 8000af2:	3601      	adds	r6, #1
 8000af4:	e7ee      	b.n	8000ad4 <__libc_init_array+0xc>
 8000af6:	f855 3b04 	ldr.w	r3, [r5], #4
 8000afa:	4798      	blx	r3
 8000afc:	3601      	adds	r6, #1
 8000afe:	e7f2      	b.n	8000ae6 <__libc_init_array+0x1e>
 8000b00:	08000b40 	.word	0x08000b40
 8000b04:	08000b40 	.word	0x08000b40
 8000b08:	08000b40 	.word	0x08000b40
 8000b0c:	08000b44 	.word	0x08000b44

08000b10 <_init>:
 8000b10:	b5f8      	push	{r3, r4, r5, r6, r7, lr}
 8000b12:	bf00      	nop
 8000b14:	bcf8      	pop	{r3, r4, r5, r6, r7}
 8000b16:	bc08      	pop	{r3}
 8000b18:	469e      	mov	lr, r3
 8000b1a:	4770      	bx	lr

08000b1c <_fini>:
 8000b1c:	b5f8      	push	{r3, r4, r5, r6, r7, lr}
 8000b1e:	bf00      	nop
 8000b20:	bcf8      	pop	{r3, r4, r5, r6, r7}
 8000b22:	bc08      	pop	{r3}
 8000b24:	469e      	mov	lr, r3
 8000b26:	4770      	bx	lr
